; Function Attrs: nounwind uwtable
define dso_local void @sq_quotef(ptr noundef %0, ptr noundef %1, ...) local_unnamed_addr #0 {
  %3 = alloca %struct.strbuf, align 8
  %4 = alloca [1 x %struct.__va_list_tag], align 16
  call void @llvm.lifetime.start.p0(i64 24, ptr nonnull %3) #12
  call void @llvm.memcpy.p0.p0.i64(ptr noundef nonnull align 8 dereferenceable(24) %3, ptr noundef nonnull align 8 dereferenceable(24) @__const.quote_path.sb, i64 24, i1 false)
  call void @llvm.lifetime.start.p0(i64 24, ptr nonnull %4) #12
  call void @llvm.va_start.p0(ptr nonnull %4)
  call void @strbuf_vaddf(ptr noundef nonnull %3, ptr noundef %1, ptr noundef nonnull %4) #12
  call void @llvm.va_end.p0(ptr nonnull %4)
  %5 = getelementptr inbounds nuw i8, ptr %3, i64 16
  %6 = load ptr, ptr %5, align 8, !tbaa !4
  call void @sq_quote_buf(ptr noundef %0, ptr noundef %6)
  call void @strbuf_release(ptr noundef nonnull %3) #12
  call void @llvm.lifetime.end.p0(i64 24, ptr nonnull %4) #12
  call void @llvm.lifetime.end.p0(i64 24, ptr nonnull %3) #12
  ret void
}